; Function Attrs: nounwind uwtable
define noalias noundef ptr @Wlc_PrsStart(ptr noundef %0, ptr noundef readonly %1) local_unnamed_addr #0 {
  %.not = icmp eq ptr %0, null
  br i1 %.not, label %5, label %3

3:                                                ; preds = %2
  %4 = tail call i32 @Extra_FileCheck(ptr noundef nonnull %0) #24
  %.not21 = icmp eq i32 %4, 0
  br i1 %.not21, label %51, label %5

5:                                                ; preds = %3, %2
  %6 = tail call noalias dereferenceable_or_null(10136) ptr @calloc(i64 noundef 1, i64 noundef 10136) #25
  %7 = getelementptr inbounds nuw i8, ptr %6, i64 8
  store ptr %0, ptr %7, align 8
  %.not22 = icmp eq ptr %1, null
  br i1 %.not22, label %12, label %Abc_UtilStrsav.exit

Abc_UtilStrsav.exit:                              ; preds = %5
  %8 = tail call i64 @strlen(ptr noundef nonnull readonly dereferenceable(1) %1) #26
  %9 = add i64 %8, 1
  %10 = tail call noalias ptr @malloc(i64 noundef %9) #27
  %11 = tail call ptr @strcpy(ptr noundef nonnull dereferenceable(1) %10, ptr noundef nonnull readonly dereferenceable(1) %1) #24
  br label %14

12:                                               ; preds = %5
  %13 = tail call ptr @Extra_FileReadContents(ptr noundef %0) #24
  br label %14

14:                                               ; preds = %12, %Abc_UtilStrsav.exit
  %15 = phi ptr [ %10, %Abc_UtilStrsav.exit ], [ %13, %12 ]
  %16 = getelementptr inbounds nuw i8, ptr %6, i64 16
  store ptr %15, ptr %16, align 8
  %17 = tail call i64 @strlen(ptr noundef nonnull dereferenceable(1) %15) #26
  %18 = trunc i64 %17 to i32
  store i32 %18, ptr %6, align 8
  %19 = sdiv i32 %18, 50
  %20 = tail call noalias dereferenceable_or_null(16) ptr @malloc(i64 noundef 16) #27
  %21 = add nsw i32 %19, -1
  %or.cond.i = icmp ult i32 %21, 15
  %spec.store.select.i = select i1 %or.cond.i, i32 16, i32 %19
  %22 = getelementptr inbounds nuw i8, ptr %20, i64 4
  store i32 0, ptr %22, align 4
  store i32 %spec.store.select.i, ptr %20, align 8
  %.not.i23 = icmp eq i32 %spec.store.select.i, 0
  br i1 %.not.i23, label %Vec_IntAlloc.exit, label %23

23:                                               ; preds = %14
  %24 = sext i32 %spec.store.select.i to i64
  %25 = shl nsw i64 %24, 2
  %26 = tail call noalias ptr @malloc(i64 noundef %25) #27
  br label %Vec_IntAlloc.exit

Vec_IntAlloc.exit:                                ; preds = %14, %23
  %27 = phi ptr [ %26, %23 ], [ null, %14 ]
  %28 = getelementptr inbounds nuw i8, ptr %20, i64 8
  store ptr %27, ptr %28, align 8
  %29 = getelementptr inbounds nuw i8, ptr %6, i64 24
  store ptr %20, ptr %29, align 8
  %30 = tail call noalias dereferenceable_or_null(16) ptr @malloc(i64 noundef 16) #27
  %31 = getelementptr inbounds nuw i8, ptr %30, i64 4
  store i32 0, ptr %31, align 4
  store i32 %spec.store.select.i, ptr %30, align 8
  br i1 %.not.i23, label %Vec_IntAlloc.exit27, label %32

32:                                               ; preds = %Vec_IntAlloc.exit
  %33 = sext i32 %spec.store.select.i to i64
  %34 = shl nsw i64 %33, 2
  %35 = tail call noalias ptr @malloc(i64 noundef %34) #27
  br label %Vec_IntAlloc.exit27

Vec_IntAlloc.exit27:                              ; preds = %Vec_IntAlloc.exit, %32
  %36 = phi ptr [ %35, %32 ], [ null, %Vec_IntAlloc.exit ]
  %37 = getelementptr inbounds nuw i8, ptr %30, i64 8
  store ptr %36, ptr %37, align 8
  %38 = getelementptr inbounds nuw i8, ptr %6, i64 32
  store ptr %30, ptr %38, align 8
  %39 = tail call noalias dereferenceable_or_null(16) ptr @malloc(i64 noundef 16) #27
  %40 = getelementptr inbounds nuw i8, ptr %39, i64 4
  store i32 0, ptr %40, align 4
  store i32 100, ptr %39, align 8
  %41 = tail call noalias dereferenceable_or_null(400) ptr @malloc(i64 noundef 400) #27
  %42 = getelementptr inbounds nuw i8, ptr %39, i64 8
  store ptr %41, ptr %42, align 8
  %43 = getelementptr inbounds nuw i8, ptr %6, i64 40
  store ptr %39, ptr %43, align 8
  %44 = tail call noalias dereferenceable_or_null(16) ptr @malloc(i64 noundef 16) #27
  %45 = getelementptr inbounds nuw i8, ptr %44, i64 4
  store i32 0, ptr %45, align 4
  store i32 1000, ptr %44, align 8
  %46 = tail call noalias dereferenceable_or_null(8000) ptr @malloc(i64 noundef 8000) #27
  %47 = getelementptr inbounds nuw i8, ptr %44, i64 8
  store ptr %46, ptr %47, align 8
  %48 = getelementptr inbounds nuw i8, ptr %6, i64 64
  store ptr %44, ptr %48, align 8
  %49 = tail call ptr (...) @Mem_FlexStart() #24
  %50 = getelementptr inbounds nuw i8, ptr %6, i64 56
  store ptr %49, ptr %50, align 8
  br label %51

51:                                               ; preds = %3, %Vec_IntAlloc.exit27
  %.0 = phi ptr [ %6, %Vec_IntAlloc.exit27 ], [ null, %3 ]
  ret ptr %.0
}